target datalayout = "e-m:e-p270:32:32-p271:32:32-p272:64:64-i64:64-i128:128-f80:128-n8:16:32:64-S128"
target triple = "x86_64-pc-linux-gnu"

%class.LIR_Opr = type { i64 }
%class.GrowableArrayBase = type { i32, i32 }
%class.GrowableArrayMetadata = type { i64 }
%class.Interval = type { i32, i8, ptr, %class.GrowableArray.21, ptr, ptr, i32, i32, i32, i32, %class.LIR_Opr, ptr, ptr, ptr, ptr, i32, i8, i32, i32, ptr }
%class.GrowableArray.21 = type { %class.GrowableArrayWithAllocator.22, %class.GrowableArrayMetadata }
%class.GrowableArrayWithAllocator.22 = type { %class.GrowableArrayView.23 }
%class.GrowableArrayView.23 = type { %class.GrowableArrayBase, ptr }

; Function Attrs: mustprogress nounwind uwtable
define linkonce_odr hidden noundef i32 @_ZNK8Interval12assigned_regEv(ptr noundef nonnull align 8 dereferenceable(136) %0) #1 comdat align 2 {
  %2 = alloca ptr, align 8
  store ptr %0, ptr %2, align 8
  %3 = load ptr, ptr %2, align 8
  %4 = getelementptr inbounds %class.Interval, ptr %3, i32 0, i32 7
  %5 = load i32, ptr %4, align 4
  ret i32 %5
}

; Function Attrs: mustprogress nounwind uwtable
define linkonce_odr hidden noundef i32 @_ZNK8Interval7reg_numEv(ptr noundef nonnull align 8 dereferenceable(136) %0) #1 comdat align 2 {
  %2 = alloca ptr, align 8
  store ptr %0, ptr %2, align 8
  %3 = load ptr, ptr %2, align 8
  %4 = getelementptr inbounds %class.Interval, ptr %3, i32 0, i32 0
  %5 = load i32, ptr %4, align 8
  ret i32 %5
}

; Function Attrs: mustprogress nounwind uwtable
define hidden noundef zeroext i1 @_ZN10LinearScan18is_in_fpu_registerEPK8Interval(ptr noundef %0) #1 align 2 {
  %2 = alloca ptr, align 8
  store ptr %0, ptr %2, align 8
  %3 = load ptr, ptr %2, align 8
  %4 = call noundef i32 @_ZNK8Interval7reg_numEv(ptr noundef nonnull align 8 dereferenceable(136) %3)
  %5 = icmp sge i32 %4, 56
  br i1 %5, label %6, label %14

6:                                                ; preds = %1
  %7 = load ptr, ptr %2, align 8
  %8 = call noundef i32 @_ZNK8Interval12assigned_regEv(ptr noundef nonnull align 8 dereferenceable(136) %7)
  %9 = icmp sle i32 16, %8
  br i1 %9, label %10, label %14

10:                                               ; preds = %6
  %11 = load ptr, ptr %2, align 8
  %12 = call noundef i32 @_ZNK8Interval12assigned_regEv(ptr noundef nonnull align 8 dereferenceable(136) %11)
  %13 = icmp sle i32 %12, 23
  br label %14

14:                                               ; preds = %10, %6, %1
  %15 = phi i1 [ false, %6 ], [ false, %1 ], [ %13, %10 ]
  ret i1 %15
}