; Function Attrs: mustprogress nofree norecurse nosync nounwind willreturn memory(argmem: read) uwtable
define hidden noundef zeroext i1 @_ZN10LinearScan18is_in_fpu_registerEPK8Interval(ptr nocapture noundef readonly %0) local_unnamed_addr #4 align 2 {
  %2 = load i32, ptr %0, align 8
  %3 = icmp sgt i32 %2, 55
  br i1 %3, label %4, label %8

4:                                                ; preds = %1
  %5 = getelementptr inbounds i8, ptr %0, i64 60
  %6 = load i32, ptr %5, align 4
  %7 = and i32 %6, -8
  %spec.select = icmp eq i32 %7, 16
  br label %8

8:                                                ; preds = %4, %1
  %9 = phi i1 [ false, %1 ], [ %spec.select, %4 ]
  ret i1 %9
}